target datalayout = "e-m:e-p270:32:32-p271:32:32-p272:64:64-i64:64-i128:128-f80:128-n8:16:32:64-S128"
target triple = "x86_64-pc-linux-gnu"

%struct.ReplicationSlotCtlData = type { [1 x %struct.ReplicationSlot] }
%struct.ReplicationSlot = type { i8, i8, i32, i8, i8, i32, i32, %struct.ReplicationSlotPersistentData, %struct.LWLock, %struct.ConditionVariable, i32, i64, i64, i64, i64, i64 }
%struct.ReplicationSlotPersistentData = type { %struct.nameData, i32, i32, i32, i32, i64, i32, i64, i64, i8, %struct.nameData, i8, i8 }
%struct.nameData = type { [64 x i8] }
%struct.LWLock = type { i16, %struct.pg_atomic_uint32, %struct.proclist_head }
%struct.pg_atomic_uint32 = type { i32 }
%struct.proclist_head = type { i32, i32 }
%struct.ConditionVariable = type { i8, %struct.proclist_head }
%union.LWLockPadded = type { %struct.LWLock, [112 x i8] }

@ReplicationSlotCtl = dso_local global ptr null, align 8
@max_replication_slots = dso_local global i32 10, align 4
@.str.6 = private unnamed_addr constant [7 x i8] c"slot.c\00", align 1
@MainLWLockArray = external global ptr, align 8
@__func__.ReplicationSlotsComputeLogicalRestartLSN = private unnamed_addr constant [41 x i8] c"ReplicationSlotsComputeLogicalRestartLSN\00", align 1

; Function Attrs: inlinehint nounwind uwtable
define internal i32 @tas(ptr noundef %0) #7 {
  %2 = alloca ptr, align 8
  %3 = alloca i8, align 1
  store ptr %0, ptr %2, align 8
  call void @llvm.lifetime.start.p0(i64 1, ptr %3) #12
  store i8 1, ptr %3, align 1
  %4 = load i8, ptr %3, align 1
  %5 = load ptr, ptr %2, align 8
  %6 = call i8 asm sideeffect "\09lock\09\09\09\0A\09xchgb\09$0,$1\09\0A", "=q,=*m,0,*m,~{memory},~{cc},~{dirflag},~{fpsr},~{flags}"(ptr elementtype(i8) %5, i8 %4, ptr elementtype(i8) %5) #12, !srcloc !13
  store i8 %6, ptr %3, align 1
  %7 = load i8, ptr %3, align 1
  %8 = zext i8 %7 to i32
  call void @llvm.lifetime.end.p0(i64 1, ptr %3) #12
  ret i32 %8
}

; Function Attrs: nounwind uwtable
define dso_local i64 @ReplicationSlotsComputeLogicalRestartLSN() #0 {
  %1 = alloca i64, align 8
  %2 = alloca i64, align 8
  %3 = alloca i32, align 4
  %4 = alloca i32, align 4
  %5 = alloca ptr, align 8
  %6 = alloca i64, align 8
  %7 = alloca i8, align 1
  call void @llvm.lifetime.start.p0(i64 8, ptr %2) #12
  store i64 0, ptr %2, align 8
  call void @llvm.lifetime.start.p0(i64 4, ptr %3) #12
  %8 = load i32, ptr @max_replication_slots, align 4
  %9 = icmp sle i32 %8, 0
  br i1 %9, label %10, label %11

10:                                               ; preds = %0
  store i64 0, ptr %1, align 8
  store i32 1, ptr %4, align 4
  br label %90

11:                                               ; preds = %0
  %12 = load ptr, ptr @MainLWLockArray, align 8
  %13 = getelementptr inbounds %union.LWLockPadded, ptr %12, i64 37
  %14 = call zeroext i1 @LWLockAcquire(ptr noundef %13, i32 noundef 1)
  store i32 0, ptr %3, align 4
  br label %15

15:                                               ; preds = %83, %11
  %16 = load i32, ptr %3, align 4
  %17 = load i32, ptr @max_replication_slots, align 4
  %18 = icmp slt i32 %16, %17
  br i1 %18, label %19, label %86

19:                                               ; preds = %15
  call void @llvm.lifetime.start.p0(i64 8, ptr %5) #12
  call void @llvm.lifetime.start.p0(i64 8, ptr %6) #12
  call void @llvm.lifetime.start.p0(i64 1, ptr %7) #12
  %20 = load ptr, ptr @ReplicationSlotCtl, align 8
  %21 = getelementptr inbounds nuw %struct.ReplicationSlotCtlData, ptr %20, i32 0, i32 0
  %22 = load i32, ptr %3, align 4
  %23 = sext i32 %22 to i64
  %24 = getelementptr inbounds [1 x %struct.ReplicationSlot], ptr %21, i64 0, i64 %23
  store ptr %24, ptr %5, align 8
  %25 = load ptr, ptr %5, align 8
  %26 = getelementptr inbounds nuw %struct.ReplicationSlot, ptr %25, i32 0, i32 1
  %27 = load i8, ptr %26, align 1, !range !4, !noundef !5
  %28 = trunc i8 %27 to i1
  br i1 %28, label %30, label %29

29:                                               ; preds = %19
  store i32 4, ptr %4, align 4
  br label %80

30:                                               ; preds = %19
  %31 = load ptr, ptr %5, align 8
  %32 = getelementptr inbounds nuw %struct.ReplicationSlot, ptr %31, i32 0, i32 7
  %33 = getelementptr inbounds nuw %struct.ReplicationSlotPersistentData, ptr %32, i32 0, i32 1
  %34 = load i32, ptr %33, align 8
  %35 = icmp ne i32 %34, 0
  br i1 %35, label %37, label %36

36:                                               ; preds = %30
  store i32 4, ptr %4, align 4
  br label %80

37:                                               ; preds = %30
  %38 = load ptr, ptr %5, align 8
  %39 = getelementptr inbounds nuw %struct.ReplicationSlot, ptr %38, i32 0, i32 0
  %40 = call i32 @tas(ptr noundef %39)
  %41 = icmp ne i32 %40, 0
  br i1 %41, label %42, label %46

42:                                               ; preds = %37
  %43 = load ptr, ptr %5, align 8
  %44 = getelementptr inbounds nuw %struct.ReplicationSlot, ptr %43, i32 0, i32 0
  %45 = call i32 @s_lock(ptr noundef %44, ptr noundef @.str.6, i32 noundef 1213, ptr noundef @__func__.ReplicationSlotsComputeLogicalRestartLSN)
  br label %47

46:                                               ; preds = %37
  br label %47

47:                                               ; preds = %46, %42
  %48 = load ptr, ptr %5, align 8
  %49 = getelementptr inbounds nuw %struct.ReplicationSlot, ptr %48, i32 0, i32 7
  %50 = getelementptr inbounds nuw %struct.ReplicationSlotPersistentData, ptr %49, i32 0, i32 5
  %51 = load i64, ptr %50, align 8
  store i64 %51, ptr %6, align 8
  %52 = load ptr, ptr %5, align 8
  %53 = getelementptr inbounds nuw %struct.ReplicationSlot, ptr %52, i32 0, i32 7
  %54 = getelementptr inbounds nuw %struct.ReplicationSlotPersistentData, ptr %53, i32 0, i32 6
  %55 = load i32, ptr %54, align 8
  %56 = icmp ne i32 %55, 0
  %57 = zext i1 %56 to i8
  store i8 %57, ptr %7, align 1
  br label %58

58:                                               ; preds = %47
  call void asm sideeffect "", "~{memory},~{dirflag},~{fpsr},~{flags}"() #12, !srcloc !34
  %59 = load ptr, ptr %5, align 8
  %60 = getelementptr inbounds nuw %struct.ReplicationSlot, ptr %59, i32 0, i32 0
  store i8 0, ptr %60, align 8
  br label %61

61:                                               ; preds = %58
  br label %62

62:                                               ; preds = %61
  %63 = load i8, ptr %7, align 1, !range !4, !noundef !5
  %64 = trunc i8 %63 to i1
  br i1 %64, label %65, label %66

65:                                               ; preds = %62
  store i32 4, ptr %4, align 4
  br label %80

66:                                               ; preds = %62
  %67 = load i64, ptr %6, align 8
  %68 = icmp eq i64 %67, 0
  br i1 %68, label %69, label %70

69:                                               ; preds = %66
  store i32 4, ptr %4, align 4
  br label %80

70:                                               ; preds = %66
  %71 = load i64, ptr %2, align 8
  %72 = icmp eq i64 %71, 0
  br i1 %72, label %77, label %73

73:                                               ; preds = %70
  %74 = load i64, ptr %6, align 8
  %75 = load i64, ptr %2, align 8
  %76 = icmp ult i64 %74, %75
  br i1 %76, label %77, label %79

77:                                               ; preds = %73, %70
  %78 = load i64, ptr %6, align 8
  store i64 %78, ptr %2, align 8
  br label %79

79:                                               ; preds = %77, %73
  store i32 0, ptr %4, align 4
  br label %80

80:                                               ; preds = %79, %69, %65, %36, %29
  call void @llvm.lifetime.end.p0(i64 1, ptr %7) #12
  call void @llvm.lifetime.end.p0(i64 8, ptr %6) #12
  call void @llvm.lifetime.end.p0(i64 8, ptr %5) #12
  %81 = load i32, ptr %4, align 4
  switch i32 %81, label %92 [
    i32 0, label %82
    i32 4, label %83
  ]

82:                                               ; preds = %80
  br label %83

83:                                               ; preds = %82, %80
  %84 = load i32, ptr %3, align 4
  %85 = add i32 %84, 1
  store i32 %85, ptr %3, align 4
  br label %15, !llvm.loop !35

86:                                               ; preds = %15
  %87 = load ptr, ptr @MainLWLockArray, align 8
  %88 = getelementptr inbounds %union.LWLockPadded, ptr %87, i64 37
  call void @LWLockRelease(ptr noundef %88)
  %89 = load i64, ptr %2, align 8
  store i64 %89, ptr %1, align 8
  store i32 1, ptr %4, align 4
  br label %90

90:                                               ; preds = %86, %10
  call void @llvm.lifetime.end.p0(i64 4, ptr %3) #12
  call void @llvm.lifetime.end.p0(i64 8, ptr %2) #12
  %91 = load i64, ptr %1, align 8
  ret i64 %91

92:                                               ; preds = %80
  unreachable
}