; Function Attrs: nounwind uwtable
define dso_local i64 @ReplicationSlotsComputeLogicalRestartLSN() local_unnamed_addr #0 {
  %1 = load i32, ptr @max_replication_slots, align 4
  %2 = icmp slt i32 %1, 1
  br i1 %2, label %37, label %3

3:                                                ; preds = %0
  %4 = load ptr, ptr @MainLWLockArray, align 8
  %5 = getelementptr inbounds nuw i8, ptr %4, i64 4736
  %6 = tail call zeroext i1 @LWLockAcquire(ptr noundef nonnull %5, i32 noundef 1) #17
  %7 = load i32, ptr @max_replication_slots, align 4
  %8 = icmp sgt i32 %7, 0
  br i1 %8, label %.lr.ph.preheader, label %._crit_edge

.lr.ph.preheader:                                 ; preds = %3
  %.pre26 = load ptr, ptr @ReplicationSlotCtl, align 8
  br label %.lr.ph

.lr.ph:                                           ; preds = %.lr.ph.preheader, %30
  %9 = phi ptr [ %.pre26, %.lr.ph.preheader ], [ %31, %30 ]
  %indvars.iv = phi i64 [ 0, %.lr.ph.preheader ], [ %indvars.iv.next, %30 ]
  %.01724 = phi i64 [ 0, %.lr.ph.preheader ], [ %.1, %30 ]
  %10 = getelementptr inbounds nuw [1 x %struct.ReplicationSlot], ptr %9, i64 0, i64 %indvars.iv
  %11 = getelementptr inbounds nuw i8, ptr %10, i64 1
  %12 = load i8, ptr %11, align 1, !range !4, !noundef !5
  %13 = trunc nuw i8 %12 to i1
  br i1 %13, label %14, label %30

14:                                               ; preds = %.lr.ph
  %15 = getelementptr inbounds nuw i8, ptr %10, i64 88
  %16 = load i32, ptr %15, align 8
  %.not = icmp eq i32 %16, 0
  br i1 %.not, label %30, label %17

17:                                               ; preds = %14
  %18 = tail call i8 asm sideeffect "\09lock\09\09\09\0A\09xchgb\09$0,$1\09\0A", "=q,=*m,0,*m,~{memory},~{cc},~{dirflag},~{fpsr},~{flags}"(ptr nonnull elementtype(i8) %10, i8 1, ptr nonnull elementtype(i8) %10) #17, !srcloc !11
  %.not20 = icmp eq i8 %18, 0
  br i1 %.not20, label %21, label %19

19:                                               ; preds = %17
  %20 = tail call i32 @s_lock(ptr noundef nonnull %10, ptr noundef nonnull @.str.6, i32 noundef 1213, ptr noundef nonnull @__func__.ReplicationSlotsComputeLogicalRestartLSN) #17
  br label %21

21:                                               ; preds = %17, %19
  %22 = getelementptr inbounds nuw i8, ptr %10, i64 104
  %23 = load i64, ptr %22, align 8
  %24 = freeze i64 %23
  %25 = getelementptr inbounds nuw i8, ptr %10, i64 112
  %26 = load i32, ptr %25, align 8
  %.not21 = icmp ne i32 %26, 0
  tail call void asm sideeffect "", "~{memory},~{dirflag},~{fpsr},~{flags}"() #17, !srcloc !33
  store i8 0, ptr %10, align 8
  %27 = icmp eq i64 %24, 0
  %or.cond22 = or i1 %.not21, %27
  %.pre = load ptr, ptr @ReplicationSlotCtl, align 8
  br i1 %or.cond22, label %30, label %28

28:                                               ; preds = %21
  %29 = add i64 %.01724, -1
  %or.cond.not = icmp ult i64 %29, %24
  %.2 = select i1 %or.cond.not, i64 %.01724, i64 %24
  br label %30

30:                                               ; preds = %21, %14, %.lr.ph, %28
  %31 = phi ptr [ %.pre, %28 ], [ %9, %.lr.ph ], [ %9, %14 ], [ %.pre, %21 ]
  %.1 = phi i64 [ %.2, %28 ], [ %.01724, %.lr.ph ], [ %.01724, %14 ], [ %.01724, %21 ]
  %indvars.iv.next = add nuw nsw i64 %indvars.iv, 1
  %32 = load i32, ptr @max_replication_slots, align 4
  %33 = sext i32 %32 to i64
  %34 = icmp slt i64 %indvars.iv.next, %33
  br i1 %34, label %.lr.ph, label %._crit_edge, !llvm.loop !34

._crit_edge:                                      ; preds = %30, %3
  %.017.lcssa = phi i64 [ 0, %3 ], [ %.1, %30 ]
  %35 = load ptr, ptr @MainLWLockArray, align 8
  %36 = getelementptr inbounds nuw i8, ptr %35, i64 4736
  tail call void @LWLockRelease(ptr noundef nonnull %36) #17
  br label %37

37:                                               ; preds = %0, %._crit_edge
  %.0 = phi i64 [ %.017.lcssa, %._crit_edge ], [ 0, %0 ]
  ret i64 %.0
}